target datalayout = "e-m:e-p270:32:32-p271:32:32-p272:64:64-i64:64-i128:128-f80:128-n8:16:32:64-S128"
target triple = "x86_64-pc-linux-gnu"

%struct.H5G_loc_t = type { ptr, ptr }
%struct.H5O_name_t = type { ptr }
%struct.H5G_loc_gc_t = type { ptr, i64, i64 }

@H5G_init_g = external global i8, align 1
@H5_libterm_g = external global i8, align 1
@.str = private unnamed_addr constant [100 x i8] c"generated/home/dtcxzyw/WorkSpace/Projects/compilers/llvm-opt-benchmark/bench/hdf5/hdf5/src/H5Gloc.c\00", align 1
@H5E_SYM_g = external global i64, align 8
@H5E_NOTFOUND_g = external global i64, align 8
@.str.39 = private unnamed_addr constant [19 x i8] c"name doesn't exist\00", align 1
@__func__.H5G__loc_get_comment_cb = private unnamed_addr constant [24 x i8] c"H5G__loc_get_comment_cb\00", align 1

; Function Attrs: nounwind uwtable
define internal i32 @H5G__loc_get_comment_cb(ptr noundef %0, ptr noundef %1, ptr noundef %2, ptr noundef %3, ptr noundef %4, ptr noundef %5) #0 {
  %7 = alloca ptr, align 8
  %8 = alloca ptr, align 8
  %9 = alloca ptr, align 8
  %10 = alloca ptr, align 8
  %11 = alloca ptr, align 8
  %12 = alloca ptr, align 8
  %13 = alloca ptr, align 8
  %14 = alloca %struct.H5O_name_t, align 8
  %15 = alloca i32, align 4
  %16 = alloca i8, align 1
  store ptr %0, ptr %7, align 8, !tbaa !9
  store ptr %1, ptr %8, align 8, !tbaa !32
  store ptr %2, ptr %9, align 8, !tbaa !37
  store ptr %3, ptr %10, align 8, !tbaa !9
  store ptr %4, ptr %11, align 8, !tbaa !3
  store ptr %5, ptr %12, align 8, !tbaa !39
  call void @llvm.lifetime.start.p0(i64 8, ptr %13) #7
  %17 = load ptr, ptr %11, align 8, !tbaa !3
  store ptr %17, ptr %13, align 8, !tbaa !3
  call void @llvm.lifetime.start.p0(i64 8, ptr %14) #7
  call void @llvm.lifetime.start.p0(i64 4, ptr %15) #7
  store i32 0, ptr %15, align 4, !tbaa !7
  call void @llvm.lifetime.start.p0(i64 1, ptr %16) #7
  store i8 0, ptr %16, align 1, !tbaa !11
  %18 = load i8, ptr @H5G_init_g, align 1, !tbaa !11, !range !13, !noundef !14
  %19 = trunc i8 %18 to i1
  br i1 %19, label %24, label %20

20:                                               ; preds = %6
  %21 = load i8, ptr @H5_libterm_g, align 1, !tbaa !11, !range !13, !noundef !14
  %22 = trunc i8 %21 to i1
  %23 = xor i1 %22, true
  br label %24

24:                                               ; preds = %20, %6
  %25 = phi i1 [ true, %6 ], [ %23, %20 ]
  %26 = xor i1 %25, true
  %27 = xor i1 %26, true
  %28 = zext i1 %27 to i32
  %29 = sext i32 %28 to i64
  %30 = call i64 @llvm.expect.i64(i64 %29, i64 1)
  %31 = icmp ne i64 %30, 0
  br i1 %31, label %32, label %109

32:                                               ; preds = %24
  %33 = load ptr, ptr %10, align 8, !tbaa !9
  %34 = icmp eq ptr %33, null
  br i1 %34, label %35, label %54

35:                                               ; preds = %32
  br label %36

36:                                               ; preds = %35
  br label %37

37:                                               ; preds = %36
  br label %38

38:                                               ; preds = %37
  %39 = load i64, ptr @H5E_SYM_g, align 8, !tbaa !15
  %40 = load i64, ptr @H5E_NOTFOUND_g, align 8, !tbaa !15
  %41 = call i32 (ptr, ptr, i32, i64, i64, ptr, ...) @H5E_printf_stack(ptr noundef @.str, ptr noundef @__func__.H5G__loc_get_comment_cb, i32 noundef 939, i64 noundef %39, i64 noundef %40, ptr noundef @.str.39)
  br label %42

42:                                               ; preds = %38
  br label %43

43:                                               ; preds = %42
  store i8 1, ptr %16, align 1, !tbaa !11
  %44 = load i8, ptr %16, align 1, !tbaa !11, !range !13, !noundef !14
  %45 = trunc i8 %44 to i1
  %46 = zext i1 %45 to i8
  store i8 %46, ptr %16, align 1, !tbaa !11
  br label %47

47:                                               ; preds = %43
  br label %48

48:                                               ; preds = %47
  br label %49

49:                                               ; preds = %48
  store i32 -1, ptr %15, align 4, !tbaa !7
  br label %107

50:                                               ; No predecessors!
  br label %51

51:                                               ; preds = %50
  br label %52

52:                                               ; preds = %51
  br label %53

53:                                               ; preds = %52
  br label %54

54:                                               ; preds = %53, %32
  %55 = getelementptr inbounds nuw %struct.H5O_name_t, ptr %14, i32 0, i32 0
  store ptr null, ptr %55, align 8, !tbaa !70
  %56 = load ptr, ptr %10, align 8, !tbaa !9
  %57 = getelementptr inbounds nuw %struct.H5G_loc_t, ptr %56, i32 0, i32 0
  %58 = load ptr, ptr %57, align 8, !tbaa !21
  %59 = call ptr @H5O_msg_read(ptr noundef %58, i32 noundef 13, ptr noundef %14)
  %60 = icmp eq ptr null, %59
  br i1 %60, label %61, label %79

61:                                               ; preds = %54
  %62 = load ptr, ptr %13, align 8, !tbaa !3
  %63 = getelementptr inbounds nuw %struct.H5G_loc_gc_t, ptr %62, i32 0, i32 0
  %64 = load ptr, ptr %63, align 8, !tbaa !72
  %65 = icmp ne ptr %64, null
  br i1 %65, label %66, label %76

66:                                               ; preds = %61
  %67 = load ptr, ptr %13, align 8, !tbaa !3
  %68 = getelementptr inbounds nuw %struct.H5G_loc_gc_t, ptr %67, i32 0, i32 1
  %69 = load i64, ptr %68, align 8, !tbaa !74
  %70 = icmp ugt i64 %69, 0
  br i1 %70, label %71, label %76

71:                                               ; preds = %66
  %72 = load ptr, ptr %13, align 8, !tbaa !3
  %73 = getelementptr inbounds nuw %struct.H5G_loc_gc_t, ptr %72, i32 0, i32 0
  %74 = load ptr, ptr %73, align 8, !tbaa !72
  %75 = getelementptr inbounds i8, ptr %74, i64 0
  store i8 0, ptr %75, align 1, !tbaa !34
  br label %76

76:                                               ; preds = %71, %66, %61
  %77 = load ptr, ptr %13, align 8, !tbaa !3
  %78 = getelementptr inbounds nuw %struct.H5G_loc_gc_t, ptr %77, i32 0, i32 2
  store i64 0, ptr %78, align 8, !tbaa !75
  br label %106

79:                                               ; preds = %54
  %80 = load ptr, ptr %13, align 8, !tbaa !3
  %81 = getelementptr inbounds nuw %struct.H5G_loc_gc_t, ptr %80, i32 0, i32 0
  %82 = load ptr, ptr %81, align 8, !tbaa !72
  %83 = icmp ne ptr %82, null
  br i1 %83, label %84, label %99

84:                                               ; preds = %79
  %85 = load ptr, ptr %13, align 8, !tbaa !3
  %86 = getelementptr inbounds nuw %struct.H5G_loc_gc_t, ptr %85, i32 0, i32 1
  %87 = load i64, ptr %86, align 8, !tbaa !74
  %88 = icmp ne i64 %87, 0
  br i1 %88, label %89, label %99

89:                                               ; preds = %84
  %90 = load ptr, ptr %13, align 8, !tbaa !3
  %91 = getelementptr inbounds nuw %struct.H5G_loc_gc_t, ptr %90, i32 0, i32 0
  %92 = load ptr, ptr %91, align 8, !tbaa !72
  %93 = getelementptr inbounds nuw %struct.H5O_name_t, ptr %14, i32 0, i32 0
  %94 = load ptr, ptr %93, align 8, !tbaa !70
  %95 = load ptr, ptr %13, align 8, !tbaa !3
  %96 = getelementptr inbounds nuw %struct.H5G_loc_gc_t, ptr %95, i32 0, i32 1
  %97 = load i64, ptr %96, align 8, !tbaa !74
  %98 = call ptr @strncpy(ptr noundef %92, ptr noundef %94, i64 noundef %97) #7
  br label %99

99:                                               ; preds = %89, %84, %79
  %100 = getelementptr inbounds nuw %struct.H5O_name_t, ptr %14, i32 0, i32 0
  %101 = load ptr, ptr %100, align 8, !tbaa !70
  %102 = call i64 @strlen(ptr noundef %101) #8
  %103 = load ptr, ptr %13, align 8, !tbaa !3
  %104 = getelementptr inbounds nuw %struct.H5G_loc_gc_t, ptr %103, i32 0, i32 2
  store i64 %102, ptr %104, align 8, !tbaa !75
  %105 = call i32 @H5O_msg_reset(i32 noundef 13, ptr noundef %14)
  br label %106

106:                                              ; preds = %99, %76
  br label %107

107:                                              ; preds = %106, %49
  %108 = load ptr, ptr %12, align 8, !tbaa !39
  store i32 0, ptr %108, align 4, !tbaa !7
  br label %109

109:                                              ; preds = %107, %24
  %110 = load i32, ptr %15, align 4, !tbaa !7
  call void @llvm.lifetime.end.p0(i64 1, ptr %16) #7
  call void @llvm.lifetime.end.p0(i64 4, ptr %15) #7
  call void @llvm.lifetime.end.p0(i64 8, ptr %14) #7
  call void @llvm.lifetime.end.p0(i64 8, ptr %13) #7
  ret i32 %110
}