; Function Attrs: nounwind uwtable
define internal range(i32 -1, 1) i32 @H5G__loc_get_comment_cb(ptr readnone captures(none) %0, ptr readnone captures(none) %1, ptr readnone captures(none) %2, ptr noundef readonly captures(address_is_null) %3, ptr noundef captures(none) %4, ptr noundef writeonly captures(none) %5) #0 {
  %7 = alloca %struct.H5O_name_t, align 8
  call void @llvm.lifetime.start.p0(i64 8, ptr nonnull %7) #9
  %8 = load i8, ptr @H5G_init_g, align 1, !tbaa !3, !range !7, !noundef !8
  %9 = trunc nuw i8 %8 to i1
  %10 = load i8, ptr @H5_libterm_g, align 1, !range !7
  %11 = trunc nuw i8 %10 to i1
  %12 = xor i1 %11, true
  %13 = select i1 %9, i1 true, i1 %12
  br i1 %13, label %14, label %45, !prof !9

14:                                               ; preds = %6
  %15 = icmp eq ptr %3, null
  br i1 %15, label %16, label %20

16:                                               ; preds = %14
  %17 = load i64, ptr @H5E_SYM_g, align 8, !tbaa !10
  %18 = load i64, ptr @H5E_NOTFOUND_g, align 8, !tbaa !10
  %19 = tail call i32 (ptr, ptr, i32, i64, i64, ptr, ...) @H5E_printf_stack(ptr noundef nonnull @.str, ptr noundef nonnull @__func__.H5G__loc_get_comment_cb, i32 noundef 939, i64 noundef %17, i64 noundef %18, ptr noundef nonnull @.str.39) #9
  br label %44

20:                                               ; preds = %14
  store ptr null, ptr %7, align 8, !tbaa !49
  %21 = load ptr, ptr %3, align 8, !tbaa !12
  %22 = call ptr @H5O_msg_read(ptr noundef %21, i32 noundef 13, ptr noundef nonnull %7) #9
  %23 = icmp eq ptr %22, null
  %24 = load ptr, ptr %4, align 8, !tbaa !51
  %.not19 = icmp eq ptr %24, null
  br i1 %23, label %25, label %32

25:                                               ; preds = %20
  br i1 %.not19, label %30, label %26

26:                                               ; preds = %25
  %27 = getelementptr inbounds nuw i8, ptr %4, i64 8
  %28 = load i64, ptr %27, align 8, !tbaa !53
  %.not20 = icmp eq i64 %28, 0
  br i1 %.not20, label %30, label %29

29:                                               ; preds = %26
  store i8 0, ptr %24, align 1, !tbaa !18
  br label %30

30:                                               ; preds = %29, %26, %25
  %31 = getelementptr inbounds nuw i8, ptr %4, i64 16
  store i64 0, ptr %31, align 8, !tbaa !54
  br label %44

32:                                               ; preds = %20
  br i1 %.not19, label %39, label %33

33:                                               ; preds = %32
  %34 = getelementptr inbounds nuw i8, ptr %4, i64 8
  %35 = load i64, ptr %34, align 8, !tbaa !53
  %.not18 = icmp eq i64 %35, 0
  br i1 %.not18, label %39, label %36

36:                                               ; preds = %33
  %37 = load ptr, ptr %7, align 8, !tbaa !49
  %38 = call ptr @strncpy(ptr noundef nonnull %24, ptr noundef %37, i64 noundef %35) #9
  br label %39

39:                                               ; preds = %36, %33, %32
  %40 = load ptr, ptr %7, align 8, !tbaa !49
  %41 = call i64 @strlen(ptr noundef nonnull dereferenceable(1) %40) #10
  %42 = getelementptr inbounds nuw i8, ptr %4, i64 16
  store i64 %41, ptr %42, align 8, !tbaa !54
  %43 = call i32 @H5O_msg_reset(i32 noundef 13, ptr noundef nonnull %7) #9
  br label %44

44:                                               ; preds = %30, %39, %16
  %.1 = phi i32 [ -1, %16 ], [ 0, %30 ], [ 0, %39 ]
  store i32 0, ptr %5, align 4, !tbaa !22
  br label %45

45:                                               ; preds = %44, %6
  %.0 = phi i32 [ %.1, %44 ], [ 0, %6 ]
  call void @llvm.lifetime.end.p0(i64 8, ptr nonnull %7) #9
  ret i32 %.0
}